; Function Attrs: mustprogress nofree norecurse nosync nounwind sspstrong willreturn memory(read, inaccessiblemem: none) uwtable
define internal range(i64 1, 8589934592) i64 @builtin_inline_class_719(ptr readnone captures(none) %0, i64 noundef %1) #5 {
  %3 = inttoptr i64 %1 to ptr
  %4 = getelementptr inbounds nuw i8, ptr %3, i64 32
  %5 = load ptr, ptr %4, align 8, !tbaa !111
  %6 = getelementptr i8, ptr %5, i64 8
  %.val = load i32, ptr %6, align 8, !tbaa !14
  %7 = zext i32 %.val to i64
  %8 = shl nuw nsw i64 %7, 1
  %9 = or disjoint i64 %8, 1
  ret i64 %9
}